target datalayout = "e-m:e-p270:32:32-p271:32:32-p272:64:64-i64:64-i128:128-f80:128-n8:16:32:64-S128"
target triple = "x86_64-pc-linux-gnu"

%"struct.pkpy::StrName" = type { i16 }
%"struct.pkpy::Type" = type { i16 }
%"struct.pkpy::PyObject" = type { ptr, i8, i8, %"struct.pkpy::Type", ptr }
%class.anon.188 = type { i8 }
%"struct.pkpy::SmallNameDict" = type { i8, i16, [8 x %"struct.pkpy::StrName"], [8 x ptr] }
%"struct.pkpy::NameDictImpl" = type { %union.anon }
%union.anon = type { %"struct.pkpy::SmallNameDict" }
%"class.pkpy::VM" = type <{ ptr, ptr, %"struct.pkpy::ManagedHeap", %"struct.pkpy::ValueStack", %"struct.pkpy::CallStack", %"class.std::vector.0", %"struct.pkpy::NameDictImpl", %"class.std::map", %struct.anon, ptr, ptr, ptr, ptr, ptr, ptr, ptr, ptr, %"class.std::map.13", %"class.std::set", %"struct.pkpy::ImportContext", ptr, ptr, ptr, %"class.std::map.37", %"class.std::map.45", %"class.std::shared_ptr", ptr, ptr, ptr, ptr, i8, [7 x i8] }>
%"struct.pkpy::ManagedHeap" = type <{ %"class.std::vector", %"class.std::vector", ptr, ptr, ptr, i32, i32, i32, [4 x i8] }>
%"class.std::vector" = type { %"struct.std::_Vector_base" }
%"struct.std::_Vector_base" = type { %"struct.std::_Vector_base<pkpy::PyObject *, std::allocator<pkpy::PyObject *>>::_Vector_impl" }
%"struct.std::_Vector_base<pkpy::PyObject *, std::allocator<pkpy::PyObject *>>::_Vector_impl" = type { %"struct.std::_Vector_base<pkpy::PyObject *, std::allocator<pkpy::PyObject *>>::_Vector_impl_data" }
%"struct.std::_Vector_base<pkpy::PyObject *, std::allocator<pkpy::PyObject *>>::_Vector_impl_data" = type { ptr, ptr, ptr }
%"struct.pkpy::ValueStack" = type { [33024 x ptr], ptr, ptr }
%"struct.pkpy::CallStack" = type <{ ptr, i32, [4 x i8] }>
%"class.std::vector.0" = type { %"struct.std::_Vector_base.1" }
%"struct.std::_Vector_base.1" = type { %"struct.std::_Vector_base<pkpy::PyTypeInfo, std::allocator<pkpy::PyTypeInfo>>::_Vector_impl" }
%"struct.std::_Vector_base<pkpy::PyTypeInfo, std::allocator<pkpy::PyTypeInfo>>::_Vector_impl" = type { %"struct.std::_Vector_base<pkpy::PyTypeInfo, std::allocator<pkpy::PyTypeInfo>>::_Vector_impl_data" }
%"struct.std::_Vector_base<pkpy::PyTypeInfo, std::allocator<pkpy::PyTypeInfo>>::_Vector_impl_data" = type { ptr, ptr, ptr }
%"class.std::map" = type { %"class.std::_Rb_tree" }
%"class.std::_Rb_tree" = type { %"struct.std::_Rb_tree<pkpy::StrName, std::pair<const pkpy::StrName, pkpy::Str>, std::_Select1st<std::pair<const pkpy::StrName, pkpy::Str>>, std::less<pkpy::StrName>>::_Rb_tree_impl" }
%"struct.std::_Rb_tree<pkpy::StrName, std::pair<const pkpy::StrName, pkpy::Str>, std::_Select1st<std::pair<const pkpy::StrName, pkpy::Str>>, std::less<pkpy::StrName>>::_Rb_tree_impl" = type { %"struct.std::_Rb_tree_key_compare", %"struct.std::_Rb_tree_header" }
%"struct.std::_Rb_tree_key_compare" = type { %"struct.std::less" }
%"struct.std::less" = type { i8 }
%"struct.std::_Rb_tree_header" = type { %"struct.std::_Rb_tree_node_base", i64 }
%"struct.std::_Rb_tree_node_base" = type { i32, ptr, ptr, ptr }
%struct.anon = type { ptr, %"class.pkpy::stack_no_copy" }
%"class.pkpy::stack_no_copy" = type { %"class.pkpy::stack" }
%"class.pkpy::stack" = type { %"class.std::vector.8" }
%"class.std::vector.8" = type { %"struct.std::_Vector_base.9" }
%"struct.std::_Vector_base.9" = type { %"struct.std::_Vector_base<pkpy::ArgsView, std::allocator<pkpy::ArgsView>>::_Vector_impl" }
%"struct.std::_Vector_base<pkpy::ArgsView, std::allocator<pkpy::ArgsView>>::_Vector_impl" = type { %"struct.std::_Vector_base<pkpy::ArgsView, std::allocator<pkpy::ArgsView>>::_Vector_impl_data" }
%"struct.std::_Vector_base<pkpy::ArgsView, std::allocator<pkpy::ArgsView>>::_Vector_impl_data" = type { ptr, ptr, ptr }
%"class.std::map.13" = type { %"class.std::_Rb_tree.14" }
%"class.std::_Rb_tree.14" = type { %"struct.std::_Rb_tree<const std::type_index, std::pair<const std::type_index, pkpy::Type>, std::_Select1st<std::pair<const std::type_index, pkpy::Type>>, std::less<const std::type_index>>::_Rb_tree_impl" }
%"struct.std::_Rb_tree<const std::type_index, std::pair<const std::type_index, pkpy::Type>, std::_Select1st<std::pair<const std::type_index, pkpy::Type>>, std::less<const std::type_index>>::_Rb_tree_impl" = type { %"struct.std::_Rb_tree_key_compare.18", %"struct.std::_Rb_tree_header" }
%"struct.std::_Rb_tree_key_compare.18" = type { %"struct.std::less.19" }
%"struct.std::less.19" = type { i8 }
%"class.std::set" = type { %"class.std::_Rb_tree.21" }
%"class.std::_Rb_tree.21" = type { %"struct.std::_Rb_tree<pkpy::PyObject *, pkpy::PyObject *, std::_Identity<pkpy::PyObject *>, std::less<pkpy::PyObject *>>::_Rb_tree_impl" }
%"struct.std::_Rb_tree<pkpy::PyObject *, pkpy::PyObject *, std::_Identity<pkpy::PyObject *>, std::less<pkpy::PyObject *>>::_Rb_tree_impl" = type { %"struct.std::_Rb_tree_key_compare.25", %"struct.std::_Rb_tree_header" }
%"struct.std::_Rb_tree_key_compare.25" = type { %"struct.std::less.26" }
%"struct.std::less.26" = type { i8 }
%"struct.pkpy::ImportContext" = type { %"class.std::vector.28", %"class.std::vector.33" }
%"class.std::vector.28" = type { %"struct.std::_Vector_base.29" }
%"struct.std::_Vector_base.29" = type { %"struct.std::_Vector_base<pkpy::Str, std::allocator<pkpy::Str>>::_Vector_impl" }
%"struct.std::_Vector_base<pkpy::Str, std::allocator<pkpy::Str>>::_Vector_impl" = type { %"struct.std::_Vector_base<pkpy::Str, std::allocator<pkpy::Str>>::_Vector_impl_data" }
%"struct.std::_Vector_base<pkpy::Str, std::allocator<pkpy::Str>>::_Vector_impl_data" = type { ptr, ptr, ptr }
%"class.std::vector.33" = type { %"struct.std::_Bvector_base" }
%"struct.std::_Bvector_base" = type { %"struct.std::_Bvector_base<std::allocator<bool>>::_Bvector_impl" }
%"struct.std::_Bvector_base<std::allocator<bool>>::_Bvector_impl" = type { %"struct.std::_Bvector_base<std::allocator<bool>>::_Bvector_impl_data" }
%"struct.std::_Bvector_base<std::allocator<bool>>::_Bvector_impl_data" = type { %"struct.std::_Bit_iterator", %"struct.std::_Bit_iterator", ptr }
%"struct.std::_Bit_iterator" = type { %"struct.std::_Bit_iterator_base.base", [4 x i8] }
%"struct.std::_Bit_iterator_base.base" = type <{ ptr, i32 }>
%"class.std::map.37" = type { %"class.std::_Rb_tree.38" }
%"class.std::_Rb_tree.38" = type { %"struct.std::_Rb_tree<std::basic_string_view<char>, std::pair<const std::basic_string_view<char>, std::shared_ptr<pkpy::CodeObject>>, std::_Select1st<std::pair<const std::basic_string_view<char>, std::shared_ptr<pkpy::CodeObject>>>, std::less<std::basic_string_view<char>>>::_Rb_tree_impl" }
%"struct.std::_Rb_tree<std::basic_string_view<char>, std::pair<const std::basic_string_view<char>, std::shared_ptr<pkpy::CodeObject>>, std::_Select1st<std::pair<const std::basic_string_view<char>, std::shared_ptr<pkpy::CodeObject>>>, std::less<std::basic_string_view<char>>>::_Rb_tree_impl" = type { %"struct.std::_Rb_tree_key_compare.42", %"struct.std::_Rb_tree_header" }
%"struct.std::_Rb_tree_key_compare.42" = type { %"struct.std::less.43" }
%"struct.std::less.43" = type { i8 }
%"class.std::map.45" = type { %"class.std::_Rb_tree.46" }
%"class.std::_Rb_tree.46" = type { %"struct.std::_Rb_tree<std::basic_string_view<char>, std::pair<const std::basic_string_view<char>, pkpy::PyObject *>, std::_Select1st<std::pair<const std::basic_string_view<char>, pkpy::PyObject *>>, std::less<std::basic_string_view<char>>>::_Rb_tree_impl" }
%"struct.std::_Rb_tree<std::basic_string_view<char>, std::pair<const std::basic_string_view<char>, pkpy::PyObject *>, std::_Select1st<std::pair<const std::basic_string_view<char>, pkpy::PyObject *>>, std::less<std::basic_string_view<char>>>::_Rb_tree_impl" = type { %"struct.std::_Rb_tree_key_compare.42", %"struct.std::_Rb_tree_header" }
%"class.std::shared_ptr" = type { %"class.std::__shared_ptr" }
%"class.std::__shared_ptr" = type { ptr, %"class.std::__shared_count" }
%"class.std::__shared_count" = type { ptr }
%"struct.pkpy::Py_.387" = type { %"struct.pkpy::PyObject", %"struct.pkpy::VoidP" }
%"struct.pkpy::VoidP" = type { ptr }

@_ZN4pkpy2VM6tp_intE = linkonce_odr constant %"struct.pkpy::Type" { i16 2 }, comdat, align 2

; Function Attrs: mustprogress uwtable
define linkonce_odr noundef ptr @_ZN4pkpy6py_varIRsEEPNS_8PyObjectEPNS_2VMEOT_(ptr noundef %0, ptr noundef nonnull align 2 dereferenceable(2) %1) #4 comdat {
  %3 = alloca ptr, align 8
  %4 = alloca ptr, align 8
  %5 = alloca ptr, align 8
  %6 = alloca i64, align 8
  %7 = alloca %"struct.pkpy::Type", align 2
  store ptr %0, ptr %4, align 8
  store ptr %1, ptr %5, align 8
  %8 = load ptr, ptr %5, align 8
  %9 = load i16, ptr %8, align 2
  %10 = sext i16 %9 to i64
  store i64 %10, ptr %6, align 8
  %11 = load i64, ptr %6, align 8
  %12 = icmp sge i64 %11, 0
  br i1 %12, label %13, label %22

13:                                               ; preds = %2
  %14 = load i64, ptr %6, align 8
  %15 = icmp sle i64 %14, 1152921504606846975
  br i1 %15, label %16, label %22

16:                                               ; preds = %13
  %17 = load i64, ptr %6, align 8
  %18 = shl i64 %17, 2
  %19 = or i64 %18, 2
  store i64 %19, ptr %6, align 8
  %20 = load i64, ptr %6, align 8
  %21 = inttoptr i64 %20 to ptr
  store ptr %21, ptr %3, align 8
  br label %28

22:                                               ; preds = %13, %2
  %23 = load ptr, ptr %4, align 8
  %24 = getelementptr inbounds %"class.pkpy::VM", ptr %23, i32 0, i32 2
  call void @llvm.memcpy.p0.p0.i64(ptr align 2 %7, ptr align 2 @_ZN4pkpy2VM6tp_intE, i64 2, i1 false)
  %25 = getelementptr inbounds %"struct.pkpy::Type", ptr %7, i32 0, i32 0
  %26 = load i16, ptr %25, align 2
  %27 = call noundef ptr @_ZN4pkpy11ManagedHeap5gcnewIlJRlEEEPNS_8PyObjectENS_4TypeEDpOT0_(ptr noundef nonnull align 8 dereferenceable(84) %24, i16 %26, ptr noundef nonnull align 8 dereferenceable(8) %6)
  store ptr %27, ptr %3, align 8
  br label %28

28:                                               ; preds = %22, %16
  %29 = load ptr, ptr %3, align 8
  ret ptr %29
}

; Function Attrs: mustprogress uwtable
define linkonce_odr noundef i64 @_ZN4pkpy7py_castIlEET_PNS_2VMEPNS_8PyObjectE(ptr noundef %0, ptr noundef %1) #4 comdat {
  %3 = alloca ptr, align 8
  %4 = alloca ptr, align 8
  store ptr %0, ptr %3, align 8
  store ptr %1, ptr %4, align 8
  %5 = load ptr, ptr %3, align 8
  %6 = load ptr, ptr %4, align 8
  %7 = call noundef i64 @_ZN4pkpy18_py_cast__internalIlLb1EEET_PNS_2VMEPNS_8PyObjectE(ptr noundef %5, ptr noundef %6)
  ret i64 %7
}

; Function Attrs: mustprogress uwtable
define internal noundef ptr @"_ZZN4pkpy12add_module_cEPNS_2VMEENK4$_26clES1_PNS_8PyObjectES4_"(ptr noundef nonnull align 1 dereferenceable(1) %0, ptr noundef %1, ptr noundef %2, ptr noundef %3) #4 align 2 {
  %5 = alloca ptr, align 8
  %6 = alloca ptr, align 8
  %7 = alloca ptr, align 8
  %8 = alloca ptr, align 8
  %9 = alloca ptr, align 8
  %10 = alloca i64, align 8
  %11 = alloca ptr, align 8
  store ptr %0, ptr %5, align 8
  store ptr %1, ptr %6, align 8
  store ptr %2, ptr %7, align 8
  store ptr %3, ptr %8, align 8
  %12 = load ptr, ptr %7, align 8
  %13 = getelementptr inbounds %"struct.pkpy::Py_.387", ptr %12, i32 0, i32 1
  store ptr %13, ptr %9, align 8
  %14 = load ptr, ptr %6, align 8
  %15 = load ptr, ptr %8, align 8
  %16 = call noundef i64 @_ZN4pkpy7py_castIlEET_PNS_2VMEPNS_8PyObjectE(ptr noundef %14, ptr noundef %15)
  store i64 %16, ptr %10, align 8
  %17 = load ptr, ptr %9, align 8
  %18 = getelementptr inbounds %"struct.pkpy::VoidP", ptr %17, i32 0, i32 0
  %19 = load ptr, ptr %18, align 8
  store ptr %19, ptr %11, align 8
  %20 = load ptr, ptr %6, align 8
  %21 = load ptr, ptr %11, align 8
  %22 = load i64, ptr %10, align 8
  %23 = getelementptr inbounds i16, ptr %21, i64 %22
  %24 = call noundef ptr @_ZN4pkpy6py_varIRsEEPNS_8PyObjectEPNS_2VMEOT_(ptr noundef %20, ptr noundef nonnull align 2 dereferenceable(2) %23)
  ret ptr %24
}

; Function Attrs: mustprogress uwtable
define internal noundef ptr @"_ZZN4pkpy12add_module_cEPNS_2VMEEN4$_268__invokeES1_PNS_8PyObjectES4_"(ptr noundef %0, ptr noundef %1, ptr noundef %2) #4 align 2 {
  %4 = alloca ptr, align 8
  %5 = alloca ptr, align 8
  %6 = alloca ptr, align 8
  %7 = alloca %class.anon.188, align 1
  store ptr %0, ptr %4, align 8
  store ptr %1, ptr %5, align 8
  store ptr %2, ptr %6, align 8
  %8 = load ptr, ptr %4, align 8
  %9 = load ptr, ptr %5, align 8
  %10 = load ptr, ptr %6, align 8
  %11 = call noundef ptr @"_ZZN4pkpy12add_module_cEPNS_2VMEENK4$_26clES1_PNS_8PyObjectES4_"(ptr noundef nonnull align 1 dereferenceable(1) %7, ptr noundef %8, ptr noundef %9, ptr noundef %10)
  ret ptr %11
}